(dp0
I202
F0.015625
sI245
F2.40625
sI246
F4.15625
sI247
F4.8125
sI248
F4.96875
sI249
F3.90625
sI250
F1.9375
sI292
F9.921875
sI293
F7.171875
sI294
F6.015625
sI295
F14.078125
sI296
F9.734375
sI297
F13.171875
sI298
F5.21875
sI299
F5.765625
sI300
F5.84375
sI324
F7.671875
sI326
F5.78125
sI340
F16.140625
sI341
F16.609375
sI342
F15.21875
sI343
F4.390625
sI344
F5.328125
sI345
F7.296875
sI346
F6.078125
sI347
F6.25
sI348
F6.734375
sI349
F5.59375
sI350
F4.90625
sI367
F0.359375
sI368
F0.65625
sI374
F9.640625
sI375
F11.375
sI377
F13.71875
sI390
F21.765625
sI391
F20.5
sI392
F11.453125
sI393
F20.03125
sI394
F22.1875
sI395
F5.5
sI396
F24.71875
sI397
F6.984375
sI398
F8.890625
sI399
F18.609375
sI400
F17.34375
sI401
F14.375
sI403
F8.734375
sI406
F1.0
sI418
F0.78125
sI419
F0.953125
sI422
F1.0
sI424
F12.703125
sI425
F15.3125
sI426
F12.90625
sI427
F11.078125
sI431
F1.0
sI432
F1.0
sI433
F1.0
sI440
F26.453125
sI441
F31.765625
sI442
F27.265625
sI443
F14.28125
sI444
F22.953125
sI445
F24.3125
sI446
F22.078125
sI447
F25.109375
sI448
F22.078125
sI449
F21.875
sI450
F23.25
sI451
F7.75
sI452
F7.78125
sI457
F0.859375
sI468
F0.296875
sI469
F0.765625
sI472
F1.0
sI473
F2.0
sI474
F12.328125
sI475
F14.328125
sI476
F15.890625
sI477
F14.84375
sI478
F17.09375
sI479
F17.125
sI480
F21.296875
sI481
F26.640625
sI482
F27.171875
sI483
F1.0
sI484
F1.0
sI485
F1.0
sI486
F1.0
sI491
F24.953125
sI492
F32.296875
sI493
F32.265625
sI494
F33.328125
sI495
F27.859375
sI496
F22.796875
sI497
F21.375
sI498
F20.75
sI499
F25.03125
sI500
F26.625
sI501
F12.15625
sI502
F13.96875
sI503
F12.28125
sI504
F10.75
sI505
F0.796875
sI506
F0.828125
sI507
F0.546875
sI509
F0.953125
sI510
F1.0
sI511
F1.0
sI512
F0.984375
sI514
F0.34375
sI519
F0.6875
sI520
F0.84375
sI521
F1.015625
sI522
F1.359375
sI523
F1.0
sI525
F15.390625
sI526
F14.109375
sI527
F18.140625
sI528
F19.90625
sI529
F21.296875
sI530
F23.921875
sI531
F26.515625
sI532
F29.859375
sI533
F36.140625
sI534
F32.921875
sI535
F35.375
sI536
F2.96875
sI537
F2.0
sI538
F1.15625
sI543
F28.703125
sI544
F40.03125
sI545
F39.984375
sI546
F40.28125
sI547
F42.71875
sI548
F42.203125
sI549
F39.765625
sI550
F40.25
sI551
F28.859375
sI552
F33.265625
sI553
F13.390625
sI554
F15.375
sI555
F4.140625
sI556
F2.234375
sI557
F2.40625
sI558
F1.5625
sI559
F0.84375
sI560
F0.984375
sI561
F1.0
sI564
F0.453125
sI570
F0.890625
sI571
F1.171875
sI572
F1.4375
sI573
F1.234375
sI575
F1.0
sI576
F16.09375
sI577
F19.6875
sI578
F19.578125
sI579
F27.328125
sI580
F25.421875
sI581
F26.78125
sI582
F39.1875
sI583
F41.46875
sI584
F44.65625
sI585
F37.140625
sI586
F40.6875
sI587
F39.828125
sI588
F2.734375
sI589
F2.953125
sI590
F1.984375
sI591
F0.015625
sI593
F31.515625
sI594
F34.9375
sI595
F11.265625
sI596
F48.203125
sI597
F45.09375
sI598
F9.53125
sI599
F31.640625
sI600
F40.5625
sI601
F39.71875
sI602
F32.015625
sI603
F4.875
sI604
F15.90625
sI605
F4.859375
sI606
F4.578125
sI607
F3.640625
sI608
F2.0
sI609
F1.9375
sI610
F0.984375
sI611
F0.9375
sI612
F0.875
sI614
F0.734375
sI615
F0.53125
sI620
F1.015625
sI621
F2.359375
sI622
F9.65625
sI623
F2.96875
sI624
F17.03125
sI625
F18.0
sI626
F19.625
sI627
F22.78125
sI628
F27.453125
sI629
F26.640625
sI630
F35.109375
sI631
F43.265625
sI632
F44.734375
sI633
F42.859375
sI634
F46.0625
sI635
F45.0
sI636
F7.609375
sI637
F5.765625
sI638
F5.921875
sI639
F2.984375
sI641
F2.953125
sI642
F4.0
sI643
F44.734375
sI644
F45.421875
sI645
F46.515625
sI646
F44.03125
sI647
F44.0
sI648
F31.390625
sI649
F33.0625
sI650
F39.921875
sI651
F36.859375
sI652
F11.71875
sI653
F16.078125
sI654
F4.671875
sI655
F5.671875
sI656
F1.75
sI659
F0.78125
sI660
F0.96875
sI662
F0.9375
sI663
F0.703125
sI666
F9.515625
sI667
F9.59375
sI668
F12.1875
sI669
F12.4375
sI670
F13.453125
sI671
F18.671875
sI672
F21.625
sI673
F17.28125
sI674
F27.078125
sI675
F27.34375
sI676
F37.21875
sI677
F38.734375
sI678
F45.421875
sI679
F46.03125
sI680
F47.5
sI681
F48.21875
sI682
F47.421875
sI683
F47.40625
sI684
F49.703125
sI685
F4.96875
sI686
F4.5
sI687
F3.625
sI688
F2.59375
sI689
F3.34375
sI690
F4.609375
sI691
F38.34375
sI692
F44.453125
sI693
F41.296875
sI694
F31.84375
sI695
F42.765625
sI696
F40.515625
sI697
F35.828125
sI698
F15.09375
sI699
F4.53125
sI700
F3.484375
sI701
F1.890625
sI702
F0.984375
sI704
F0.984375
sI707
F0.75
sI708
F0.03125
sI709
F0.109375
sI710
F1.421875
sI711
F11.109375
sI712
F14.40625
sI713
F3.359375
sI714
F21.3125
sI715
F22.578125
sI716
F18.859375
sI717
F24.875
sI718
F26.65625
sI719
F36.640625
sI720
F39.765625
sI721
F46.203125
sI722
F45.859375
sI723
F49.15625
sI724
F51.546875
sI725
F54.03125
sI726
F54.171875
sI728
F1.84375
sI729
F2.390625
sI730
F0.875
sI731
F0.90625
sI732
F1.84375
sI733
F1.53125
sI734
F1.984375
sI735
F5.875
sI736
F38.515625
sI737
F33.359375
sI738
F32.359375
sI739
F5.71875
sI740
F4.65625
sI741
F4.390625
sI742
F1.828125
sI743
F0.96875
sI744
F0.9375
sI745
F0.953125
sI747
F0.671875
sI748
F1.09375
sI749
F0.0625
sI750
F12.1875
sI751
F11.40625
sI752
F12.921875
sI753
F14.90625
sI754
F19.828125
sI755
F21.4375
sI756
F25.921875
sI757
F26.734375
sI758
F33.984375
sI759
F38.359375
sI760
F41.859375
sI761
F48.40625
sI762
F50.46875
sI763
F55.140625
sI764
F55.25
sI765
F55.640625
sI766
F52.421875
sI767
F0.984375
sI768
F1.0
sI769
F0.9375
sI770
F1.8125
sI771
F1.90625
sI772
F2.9375
sI773
F4.8125
sI774
F4.9375
sI775
F5.140625
sI776
F4.796875
sI777
F2.578125
sI778
F1.9375
sI779
F1.90625
sI780
F1.0
sI782
F0.4375
sI783
F0.71875
sI785
F1.4375
sI786
F1.171875
sI787
F13.84375
sI788
F19.1875
sI789
F21.859375
sI790
F25.578125
sI791
F28.890625
sI792
F36.859375
sI793
F41.1875
sI794
F42.296875
sI795
F47.078125
sI796
F51.5
sI797
F58.234375
sI798
F57.703125
sI799
F1.0
sI800
F1.0
sI802
F0.96875
sI803
F2.953125
sI804
F1.9375
sI805
F2.96875
sI806
F2.0
sI807
F2.84375
sI808
F1.984375
sI809
F1.96875
sI810
F1.984375
sI814
F0.5
sI815
F1.15625
sI816
F1.84375
sI817
F13.5
sI818
F22.984375
sI819
F19.953125
sI820
F23.25
sI821
F32.046875
sI822
F39.796875
sI823
F42.234375
sI824
F44.890625
sI825
F51.015625
sI826
F54.421875
sI827
F55.3125
sI828
F60.125
sI829
F0.984375
sI830
F0.984375
sI831
F1.0
sI832
F1.0
sI833
F1.765625
sI834
F2.953125
sI835
F1.0
sI836
F1.0
sI839
F0.484375
sI840
F3.4375
sI841
F2.921875
sI842
F19.265625
sI843
F23.328125
sI844
F23.3125
sI845
F33.203125
sI846
F45.3125
sI847
F46.71875
sI848
F53.0625
sI849
F53.734375
sI850
F1.0
sI851
F0.6875
sI858
F0.671875
sI859
F3.34375
sI860
F18.453125
sI861
F22.96875
sI862
F28.15625
sI863
F39.109375
sI864
F37.75
sI865
F49.296875
s.